target datalayout = "e-m:e-p270:32:32-p271:32:32-p272:64:64-i64:64-i128:128-f80:128-n8:16:32:64-S128"
target triple = "x86_64-pc-linux-gnu"

%struct.SN_env = type { ptr, i32, i32, i32, i32, i32, ptr, ptr }

@s_0 = internal constant [6 x i8] c"\E0\AE\B5\E0\AF\8B", align 1
@s_1 = internal constant [6 x i8] c"\E0\AE\B5\E0\AF\8B", align 1
@s_2 = internal constant [3 x i8] c"\E0\AE\93", align 1
@s_3 = internal constant [6 x i8] c"\E0\AE\B5\E0\AF\8A", align 1
@s_4 = internal constant [6 x i8] c"\E0\AE\B5\E0\AF\8A", align 1
@s_5 = internal constant [3 x i8] c"\E0\AE\92", align 1
@s_6 = internal constant [6 x i8] c"\E0\AE\B5\E0\AF\81", align 1
@s_7 = internal constant [6 x i8] c"\E0\AE\B5\E0\AF\81", align 1
@s_8 = internal constant [3 x i8] c"\E0\AE\89", align 1
@s_9 = internal constant [6 x i8] c"\E0\AE\B5\E0\AF\82", align 1
@s_10 = internal constant [6 x i8] c"\E0\AE\B5\E0\AF\82", align 1
@s_11 = internal constant [3 x i8] c"\E0\AE\8A", align 1

; Function Attrs: nounwind uwtable
define internal i32 @r_fix_va_start(ptr noundef %0) #0 {
  %2 = alloca i32, align 4
  %3 = alloca ptr, align 8
  %4 = alloca i32, align 4
  %5 = alloca i32, align 4
  %6 = alloca i32, align 4
  %7 = alloca i32, align 4
  %8 = alloca i32, align 4
  %9 = alloca i32, align 4
  %10 = alloca i32, align 4
  %11 = alloca i32, align 4
  %12 = alloca i32, align 4
  %13 = alloca i32, align 4
  %14 = alloca i32, align 4
  %15 = alloca i32, align 4
  %16 = alloca i32, align 4
  %17 = alloca i32, align 4
  store ptr %0, ptr %3, align 8
  call void @llvm.lifetime.start.p0(i64 4, ptr %4) #3
  %18 = load ptr, ptr %3, align 8
  %19 = getelementptr inbounds nuw %struct.SN_env, ptr %18, i32 0, i32 1
  %20 = load i32, ptr %19, align 8
  store i32 %20, ptr %4, align 4
  call void @llvm.lifetime.start.p0(i64 4, ptr %5) #3
  %21 = load ptr, ptr %3, align 8
  %22 = getelementptr inbounds nuw %struct.SN_env, ptr %21, i32 0, i32 1
  %23 = load i32, ptr %22, align 8
  store i32 %23, ptr %5, align 4
  call void @llvm.lifetime.start.p0(i64 4, ptr %6) #3
  %24 = load ptr, ptr %3, align 8
  %25 = getelementptr inbounds nuw %struct.SN_env, ptr %24, i32 0, i32 1
  %26 = load i32, ptr %25, align 8
  store i32 %26, ptr %6, align 4
  %27 = load ptr, ptr %3, align 8
  %28 = call i32 @eq_s(ptr noundef %27, i32 noundef 6, ptr noundef @s_0)
  %29 = icmp ne i32 %28, 0
  br i1 %29, label %34, label %30

30:                                               ; preds = %1
  %31 = load i32, ptr %6, align 4
  %32 = load ptr, ptr %3, align 8
  %33 = getelementptr inbounds nuw %struct.SN_env, ptr %32, i32 0, i32 1
  store i32 %31, ptr %33, align 8
  br label %35

34:                                               ; preds = %1
  br label %35

35:                                               ; preds = %34, %30
  call void @llvm.lifetime.end.p0(i64 4, ptr %6) #3
  %36 = load i32, ptr %5, align 4
  %37 = load ptr, ptr %3, align 8
  %38 = getelementptr inbounds nuw %struct.SN_env, ptr %37, i32 0, i32 1
  store i32 %36, ptr %38, align 8
  %39 = load ptr, ptr %3, align 8
  %40 = getelementptr inbounds nuw %struct.SN_env, ptr %39, i32 0, i32 1
  %41 = load i32, ptr %40, align 8
  %42 = load ptr, ptr %3, align 8
  %43 = getelementptr inbounds nuw %struct.SN_env, ptr %42, i32 0, i32 4
  store i32 %41, ptr %43, align 4
  call void @llvm.lifetime.end.p0(i64 4, ptr %5) #3
  %44 = load ptr, ptr %3, align 8
  %45 = call i32 @eq_s(ptr noundef %44, i32 noundef 6, ptr noundef @s_1)
  %46 = icmp ne i32 %45, 0
  br i1 %46, label %48, label %47

47:                                               ; preds = %35
  br label %64

48:                                               ; preds = %35
  %49 = load ptr, ptr %3, align 8
  %50 = getelementptr inbounds nuw %struct.SN_env, ptr %49, i32 0, i32 1
  %51 = load i32, ptr %50, align 8
  %52 = load ptr, ptr %3, align 8
  %53 = getelementptr inbounds nuw %struct.SN_env, ptr %52, i32 0, i32 5
  store i32 %51, ptr %53, align 8
  call void @llvm.lifetime.start.p0(i64 4, ptr %7) #3
  %54 = load ptr, ptr %3, align 8
  %55 = call i32 @slice_from_s(ptr noundef %54, i32 noundef 3, ptr noundef @s_2)
  store i32 %55, ptr %7, align 4
  %56 = load i32, ptr %7, align 4
  %57 = icmp slt i32 %56, 0
  br i1 %57, label %58, label %60

58:                                               ; preds = %48
  %59 = load i32, ptr %7, align 4
  store i32 %59, ptr %2, align 4
  store i32 1, ptr %8, align 4
  br label %61

60:                                               ; preds = %48
  store i32 0, ptr %8, align 4
  br label %61

61:                                               ; preds = %60, %58
  call void @llvm.lifetime.end.p0(i64 4, ptr %7) #3
  %62 = load i32, ptr %8, align 4
  switch i32 %62, label %205 [
    i32 0, label %63
  ]

63:                                               ; preds = %61
  store i32 4, ptr %8, align 4
  br label %205

64:                                               ; preds = %47
  %65 = load i32, ptr %4, align 4
  %66 = load ptr, ptr %3, align 8
  %67 = getelementptr inbounds nuw %struct.SN_env, ptr %66, i32 0, i32 1
  store i32 %65, ptr %67, align 8
  call void @llvm.lifetime.start.p0(i64 4, ptr %9) #3
  %68 = load ptr, ptr %3, align 8
  %69 = getelementptr inbounds nuw %struct.SN_env, ptr %68, i32 0, i32 1
  %70 = load i32, ptr %69, align 8
  store i32 %70, ptr %9, align 4
  call void @llvm.lifetime.start.p0(i64 4, ptr %10) #3
  %71 = load ptr, ptr %3, align 8
  %72 = getelementptr inbounds nuw %struct.SN_env, ptr %71, i32 0, i32 1
  %73 = load i32, ptr %72, align 8
  store i32 %73, ptr %10, align 4
  %74 = load ptr, ptr %3, align 8
  %75 = call i32 @eq_s(ptr noundef %74, i32 noundef 6, ptr noundef @s_3)
  %76 = icmp ne i32 %75, 0
  br i1 %76, label %81, label %77

77:                                               ; preds = %64
  %78 = load i32, ptr %10, align 4
  %79 = load ptr, ptr %3, align 8
  %80 = getelementptr inbounds nuw %struct.SN_env, ptr %79, i32 0, i32 1
  store i32 %78, ptr %80, align 8
  br label %82

81:                                               ; preds = %64
  br label %82

82:                                               ; preds = %81, %77
  call void @llvm.lifetime.end.p0(i64 4, ptr %10) #3
  %83 = load i32, ptr %9, align 4
  %84 = load ptr, ptr %3, align 8
  %85 = getelementptr inbounds nuw %struct.SN_env, ptr %84, i32 0, i32 1
  store i32 %83, ptr %85, align 8
  %86 = load ptr, ptr %3, align 8
  %87 = getelementptr inbounds nuw %struct.SN_env, ptr %86, i32 0, i32 1
  %88 = load i32, ptr %87, align 8
  %89 = load ptr, ptr %3, align 8
  %90 = getelementptr inbounds nuw %struct.SN_env, ptr %89, i32 0, i32 4
  store i32 %88, ptr %90, align 4
  call void @llvm.lifetime.end.p0(i64 4, ptr %9) #3
  %91 = load ptr, ptr %3, align 8
  %92 = call i32 @eq_s(ptr noundef %91, i32 noundef 6, ptr noundef @s_4)
  %93 = icmp ne i32 %92, 0
  br i1 %93, label %95, label %94

94:                                               ; preds = %82
  br label %111

95:                                               ; preds = %82
  %96 = load ptr, ptr %3, align 8
  %97 = getelementptr inbounds nuw %struct.SN_env, ptr %96, i32 0, i32 1
  %98 = load i32, ptr %97, align 8
  %99 = load ptr, ptr %3, align 8
  %100 = getelementptr inbounds nuw %struct.SN_env, ptr %99, i32 0, i32 5
  store i32 %98, ptr %100, align 8
  call void @llvm.lifetime.start.p0(i64 4, ptr %11) #3
  %101 = load ptr, ptr %3, align 8
  %102 = call i32 @slice_from_s(ptr noundef %101, i32 noundef 3, ptr noundef @s_5)
  store i32 %102, ptr %11, align 4
  %103 = load i32, ptr %11, align 4
  %104 = icmp slt i32 %103, 0
  br i1 %104, label %105, label %107

105:                                              ; preds = %95
  %106 = load i32, ptr %11, align 4
  store i32 %106, ptr %2, align 4
  store i32 1, ptr %8, align 4
  br label %108

107:                                              ; preds = %95
  store i32 0, ptr %8, align 4
  br label %108

108:                                              ; preds = %107, %105
  call void @llvm.lifetime.end.p0(i64 4, ptr %11) #3
  %109 = load i32, ptr %8, align 4
  switch i32 %109, label %205 [
    i32 0, label %110
  ]

110:                                              ; preds = %108
  store i32 4, ptr %8, align 4
  br label %205

111:                                              ; preds = %94
  %112 = load i32, ptr %4, align 4
  %113 = load ptr, ptr %3, align 8
  %114 = getelementptr inbounds nuw %struct.SN_env, ptr %113, i32 0, i32 1
  store i32 %112, ptr %114, align 8
  call void @llvm.lifetime.start.p0(i64 4, ptr %12) #3
  %115 = load ptr, ptr %3, align 8
  %116 = getelementptr inbounds nuw %struct.SN_env, ptr %115, i32 0, i32 1
  %117 = load i32, ptr %116, align 8
  store i32 %117, ptr %12, align 4
  call void @llvm.lifetime.start.p0(i64 4, ptr %13) #3
  %118 = load ptr, ptr %3, align 8
  %119 = getelementptr inbounds nuw %struct.SN_env, ptr %118, i32 0, i32 1
  %120 = load i32, ptr %119, align 8
  store i32 %120, ptr %13, align 4
  %121 = load ptr, ptr %3, align 8
  %122 = call i32 @eq_s(ptr noundef %121, i32 noundef 6, ptr noundef @s_6)
  %123 = icmp ne i32 %122, 0
  br i1 %123, label %128, label %124

124:                                              ; preds = %111
  %125 = load i32, ptr %13, align 4
  %126 = load ptr, ptr %3, align 8
  %127 = getelementptr inbounds nuw %struct.SN_env, ptr %126, i32 0, i32 1
  store i32 %125, ptr %127, align 8
  br label %129

128:                                              ; preds = %111
  br label %129

129:                                              ; preds = %128, %124
  call void @llvm.lifetime.end.p0(i64 4, ptr %13) #3
  %130 = load i32, ptr %12, align 4
  %131 = load ptr, ptr %3, align 8
  %132 = getelementptr inbounds nuw %struct.SN_env, ptr %131, i32 0, i32 1
  store i32 %130, ptr %132, align 8
  %133 = load ptr, ptr %3, align 8
  %134 = getelementptr inbounds nuw %struct.SN_env, ptr %133, i32 0, i32 1
  %135 = load i32, ptr %134, align 8
  %136 = load ptr, ptr %3, align 8
  %137 = getelementptr inbounds nuw %struct.SN_env, ptr %136, i32 0, i32 4
  store i32 %135, ptr %137, align 4
  call void @llvm.lifetime.end.p0(i64 4, ptr %12) #3
  %138 = load ptr, ptr %3, align 8
  %139 = call i32 @eq_s(ptr noundef %138, i32 noundef 6, ptr noundef @s_7)
  %140 = icmp ne i32 %139, 0
  br i1 %140, label %142, label %141

141:                                              ; preds = %129
  br label %158

142:                                              ; preds = %129
  %143 = load ptr, ptr %3, align 8
  %144 = getelementptr inbounds nuw %struct.SN_env, ptr %143, i32 0, i32 1
  %145 = load i32, ptr %144, align 8
  %146 = load ptr, ptr %3, align 8
  %147 = getelementptr inbounds nuw %struct.SN_env, ptr %146, i32 0, i32 5
  store i32 %145, ptr %147, align 8
  call void @llvm.lifetime.start.p0(i64 4, ptr %14) #3
  %148 = load ptr, ptr %3, align 8
  %149 = call i32 @slice_from_s(ptr noundef %148, i32 noundef 3, ptr noundef @s_8)
  store i32 %149, ptr %14, align 4
  %150 = load i32, ptr %14, align 4
  %151 = icmp slt i32 %150, 0
  br i1 %151, label %152, label %154

152:                                              ; preds = %142
  %153 = load i32, ptr %14, align 4
  store i32 %153, ptr %2, align 4
  store i32 1, ptr %8, align 4
  br label %155

154:                                              ; preds = %142
  store i32 0, ptr %8, align 4
  br label %155

155:                                              ; preds = %154, %152
  call void @llvm.lifetime.end.p0(i64 4, ptr %14) #3
  %156 = load i32, ptr %8, align 4
  switch i32 %156, label %205 [
    i32 0, label %157
  ]

157:                                              ; preds = %155
  store i32 4, ptr %8, align 4
  br label %205

158:                                              ; preds = %141
  %159 = load i32, ptr %4, align 4
  %160 = load ptr, ptr %3, align 8
  %161 = getelementptr inbounds nuw %struct.SN_env, ptr %160, i32 0, i32 1
  store i32 %159, ptr %161, align 8
  call void @llvm.lifetime.start.p0(i64 4, ptr %15) #3
  %162 = load ptr, ptr %3, align 8
  %163 = getelementptr inbounds nuw %struct.SN_env, ptr %162, i32 0, i32 1
  %164 = load i32, ptr %163, align 8
  store i32 %164, ptr %15, align 4
  call void @llvm.lifetime.start.p0(i64 4, ptr %16) #3
  %165 = load ptr, ptr %3, align 8
  %166 = getelementptr inbounds nuw %struct.SN_env, ptr %165, i32 0, i32 1
  %167 = load i32, ptr %166, align 8
  store i32 %167, ptr %16, align 4
  %168 = load ptr, ptr %3, align 8
  %169 = call i32 @eq_s(ptr noundef %168, i32 noundef 6, ptr noundef @s_9)
  %170 = icmp ne i32 %169, 0
  br i1 %170, label %175, label %171

171:                                              ; preds = %158
  %172 = load i32, ptr %16, align 4
  %173 = load ptr, ptr %3, align 8
  %174 = getelementptr inbounds nuw %struct.SN_env, ptr %173, i32 0, i32 1
  store i32 %172, ptr %174, align 8
  br label %176

175:                                              ; preds = %158
  br label %176

176:                                              ; preds = %175, %171
  call void @llvm.lifetime.end.p0(i64 4, ptr %16) #3
  %177 = load i32, ptr %15, align 4
  %178 = load ptr, ptr %3, align 8
  %179 = getelementptr inbounds nuw %struct.SN_env, ptr %178, i32 0, i32 1
  store i32 %177, ptr %179, align 8
  %180 = load ptr, ptr %3, align 8
  %181 = getelementptr inbounds nuw %struct.SN_env, ptr %180, i32 0, i32 1
  %182 = load i32, ptr %181, align 8
  %183 = load ptr, ptr %3, align 8
  %184 = getelementptr inbounds nuw %struct.SN_env, ptr %183, i32 0, i32 4
  store i32 %182, ptr %184, align 4
  call void @llvm.lifetime.end.p0(i64 4, ptr %15) #3
  %185 = load ptr, ptr %3, align 8
  %186 = call i32 @eq_s(ptr noundef %185, i32 noundef 6, ptr noundef @s_10)
  %187 = icmp ne i32 %186, 0
  br i1 %187, label %189, label %188

188:                                              ; preds = %176
  store i32 0, ptr %2, align 4
  store i32 1, ptr %8, align 4
  br label %205

189:                                              ; preds = %176
  %190 = load ptr, ptr %3, align 8
  %191 = getelementptr inbounds nuw %struct.SN_env, ptr %190, i32 0, i32 1
  %192 = load i32, ptr %191, align 8
  %193 = load ptr, ptr %3, align 8
  %194 = getelementptr inbounds nuw %struct.SN_env, ptr %193, i32 0, i32 5
  store i32 %192, ptr %194, align 8
  call void @llvm.lifetime.start.p0(i64 4, ptr %17) #3
  %195 = load ptr, ptr %3, align 8
  %196 = call i32 @slice_from_s(ptr noundef %195, i32 noundef 3, ptr noundef @s_11)
  store i32 %196, ptr %17, align 4
  %197 = load i32, ptr %17, align 4
  %198 = icmp slt i32 %197, 0
  br i1 %198, label %199, label %201

199:                                              ; preds = %189
  %200 = load i32, ptr %17, align 4
  store i32 %200, ptr %2, align 4
  store i32 1, ptr %8, align 4
  br label %202

201:                                              ; preds = %189
  store i32 0, ptr %8, align 4
  br label %202

202:                                              ; preds = %201, %199
  call void @llvm.lifetime.end.p0(i64 4, ptr %17) #3
  %203 = load i32, ptr %8, align 4
  switch i32 %203, label %205 [
    i32 0, label %204
  ]

204:                                              ; preds = %202
  store i32 0, ptr %8, align 4
  br label %205

205:                                              ; preds = %157, %110, %63, %204, %202, %188, %155, %108, %61
  call void @llvm.lifetime.end.p0(i64 4, ptr %4) #3
  %206 = load i32, ptr %8, align 4
  switch i32 %206, label %211 [
    i32 0, label %207
    i32 1, label %209
    i32 4, label %208
  ]

207:                                              ; preds = %205
  br label %208

208:                                              ; preds = %207, %205
  store i32 1, ptr %2, align 4
  br label %209

209:                                              ; preds = %208, %205
  %210 = load i32, ptr %2, align 4
  ret i32 %210

211:                                              ; preds = %205
  unreachable
}