; Function Attrs: nounwind uwtable
define internal fastcc i32 @r_fix_va_start(ptr noundef %0) unnamed_addr #0 {
  %2 = getelementptr inbounds nuw i8, ptr %0, i64 8
  %3 = load i32, ptr %2, align 8
  %4 = tail call i32 @eq_s(ptr noundef %0, i32 noundef 6, ptr noundef nonnull @s_0) #3
  store i32 %3, ptr %2, align 8
  %5 = getelementptr inbounds nuw i8, ptr %0, i64 20
  store i32 %3, ptr %5, align 4
  %6 = tail call i32 @eq_s(ptr noundef nonnull %0, i32 noundef 6, ptr noundef nonnull @s_1) #3
  %.not83 = icmp eq i32 %6, 0
  br i1 %.not83, label %12, label %7

7:                                                ; preds = %1
  %8 = load i32, ptr %2, align 8
  %9 = getelementptr inbounds nuw i8, ptr %0, i64 24
  store i32 %8, ptr %9, align 8
  %10 = tail call i32 @slice_from_s(ptr noundef nonnull %0, i32 noundef 3, ptr noundef nonnull @s_2) #3
  %11 = icmp sgt i32 %10, -1
  br i1 %11, label %.thread102, label %.thread

12:                                               ; preds = %1
  store i32 %3, ptr %2, align 8
  %13 = tail call i32 @eq_s(ptr noundef nonnull %0, i32 noundef 6, ptr noundef nonnull @s_3) #3
  store i32 %3, ptr %2, align 8
  store i32 %3, ptr %5, align 4
  %14 = tail call i32 @eq_s(ptr noundef nonnull %0, i32 noundef 6, ptr noundef nonnull @s_4) #3
  %.not85 = icmp eq i32 %14, 0
  br i1 %.not85, label %20, label %15

15:                                               ; preds = %12
  %16 = load i32, ptr %2, align 8
  %17 = getelementptr inbounds nuw i8, ptr %0, i64 24
  store i32 %16, ptr %17, align 8
  %18 = tail call i32 @slice_from_s(ptr noundef nonnull %0, i32 noundef 3, ptr noundef nonnull @s_5) #3
  %19 = icmp sgt i32 %18, -1
  br i1 %19, label %.thread102, label %.thread

20:                                               ; preds = %12
  store i32 %3, ptr %2, align 8
  %21 = tail call i32 @eq_s(ptr noundef nonnull %0, i32 noundef 6, ptr noundef nonnull @s_6) #3
  store i32 %3, ptr %2, align 8
  store i32 %3, ptr %5, align 4
  %22 = tail call i32 @eq_s(ptr noundef nonnull %0, i32 noundef 6, ptr noundef nonnull @s_7) #3
  %.not87 = icmp eq i32 %22, 0
  br i1 %.not87, label %28, label %23

23:                                               ; preds = %20
  %24 = load i32, ptr %2, align 8
  %25 = getelementptr inbounds nuw i8, ptr %0, i64 24
  store i32 %24, ptr %25, align 8
  %26 = tail call i32 @slice_from_s(ptr noundef nonnull %0, i32 noundef 3, ptr noundef nonnull @s_8) #3
  %27 = icmp sgt i32 %26, -1
  br i1 %27, label %.thread102, label %.thread

28:                                               ; preds = %20
  store i32 %3, ptr %2, align 8
  %29 = tail call i32 @eq_s(ptr noundef nonnull %0, i32 noundef 6, ptr noundef nonnull @s_9) #3
  store i32 %3, ptr %2, align 8
  store i32 %3, ptr %5, align 4
  %30 = tail call i32 @eq_s(ptr noundef nonnull %0, i32 noundef 6, ptr noundef nonnull @s_10) #3
  %.not89 = icmp eq i32 %30, 0
  br i1 %.not89, label %.thread, label %31

.thread102:                                       ; preds = %7, %15, %23
  br label %.thread

31:                                               ; preds = %28
  %32 = load i32, ptr %2, align 8
  %33 = getelementptr inbounds nuw i8, ptr %0, i64 24
  store i32 %32, ptr %33, align 8
  %34 = tail call i32 @slice_from_s(ptr noundef nonnull %0, i32 noundef 3, ptr noundef nonnull @s_11) #3
  %.fr = freeze i32 %34
  %switch = icmp slt i32 %.fr, 0
  %spec.select = select i1 %switch, i32 %.fr, i32 1
  br label %.thread

.thread:                                          ; preds = %31, %28, %23, %15, %7, %.thread102
  %35 = phi i32 [ 1, %.thread102 ], [ 0, %28 ], [ %26, %23 ], [ %18, %15 ], [ %10, %7 ], [ %spec.select, %31 ]
  ret i32 %35
}